; Function Attrs: mustprogress uwtable
define internal noundef ptr @"_ZZN4pkpy15__init_builtinsEPNS_2VMEEN5$_1168__invokeES1_PNS_8PyObjectES4_"(ptr noundef %0, ptr nocapture noundef readonly %1, ptr noundef %2) #4 align 2 {
  %4 = getelementptr inbounds i8, ptr %1, i64 24
  %5 = ptrtoint ptr %2 to i64
  %6 = and i64 %5, 3
  %7 = icmp eq i64 %6, 2
  br i1 %7, label %"_ZZN4pkpy15__init_builtinsEPNS_2VMEENK5$_116clES1_PNS_8PyObjectES4_.exit", label %_ZN4pkpy7is_typeEPNS_8PyObjectENS_4TypeE.exit.i

_ZN4pkpy7is_typeEPNS_8PyObjectENS_4TypeE.exit.i:  ; preds = %3
  %8 = getelementptr inbounds i8, ptr %2, i64 10
  %9 = load i16, ptr %8, align 2
  %10 = icmp eq i16 %9, 6
  br i1 %10, label %11, label %"_ZZN4pkpy15__init_builtinsEPNS_2VMEENK5$_116clES1_PNS_8PyObjectES4_.exit"

11:                                               ; preds = %_ZN4pkpy7is_typeEPNS_8PyObjectENS_4TypeE.exit.i
  %12 = getelementptr inbounds i8, ptr %2, i64 24
  %13 = load i32, ptr %4, align 8
  %14 = load i32, ptr %12, align 8
  %.not.i = icmp eq i32 %13, %14
  br i1 %.not.i, label %.preheader.i, label %"_ZZN4pkpy15__init_builtinsEPNS_2VMEENK5$_116clES1_PNS_8PyObjectES4_.exit"

.preheader.i:                                     ; preds = %11
  %15 = icmp sgt i32 %13, 0
  br i1 %15, label %.lr.ph.i, label %"_ZZN4pkpy15__init_builtinsEPNS_2VMEENK5$_116clES1_PNS_8PyObjectES4_.exit"

.lr.ph.i:                                         ; preds = %.preheader.i
  %16 = getelementptr inbounds i8, ptr %1, i64 32
  %17 = getelementptr inbounds i8, ptr %2, i64 32
  br label %22

18:                                               ; preds = %22
  %indvars.iv.next.i = add nuw nsw i64 %indvars.iv.i, 1
  %19 = load i32, ptr %4, align 8
  %20 = sext i32 %19 to i64
  %21 = icmp slt i64 %indvars.iv.next.i, %20
  br i1 %21, label %22, label %"_ZZN4pkpy15__init_builtinsEPNS_2VMEENK5$_116clES1_PNS_8PyObjectES4_.exit", !llvm.loop !137

22:                                               ; preds = %18, %.lr.ph.i
  %indvars.iv.i = phi i64 [ 0, %.lr.ph.i ], [ %indvars.iv.next.i, %18 ]
  %23 = load ptr, ptr %16, align 8
  %24 = getelementptr inbounds ptr, ptr %23, i64 %indvars.iv.i
  %25 = load ptr, ptr %24, align 8
  %26 = load ptr, ptr %17, align 8
  %27 = getelementptr inbounds ptr, ptr %26, i64 %indvars.iv.i
  %28 = load ptr, ptr %27, align 8
  %29 = tail call noundef zeroext i1 @_ZN4pkpy2VM5py_eqEPNS_8PyObjectES2_(ptr noundef nonnull align 8 dereferenceable(264913) %0, ptr noundef %25, ptr noundef %28)
  br i1 %29, label %18, label %"_ZZN4pkpy15__init_builtinsEPNS_2VMEENK5$_116clES1_PNS_8PyObjectES4_.exit"

"_ZZN4pkpy15__init_builtinsEPNS_2VMEENK5$_116clES1_PNS_8PyObjectES4_.exit": ; preds = %18, %22, %3, %_ZN4pkpy7is_typeEPNS_8PyObjectENS_4TypeE.exit.i, %11, %.preheader.i
  %.sink.i = phi i64 [ 264544, %3 ], [ 264544, %_ZN4pkpy7is_typeEPNS_8PyObjectENS_4TypeE.exit.i ], [ 264536, %11 ], [ 264528, %.preheader.i ], [ 264528, %18 ], [ 264536, %22 ]
  %30 = getelementptr inbounds i8, ptr %0, i64 %.sink.i
  %.019.i = load ptr, ptr %30, align 8
  ret ptr %.019.i
}